; Function Attrs: nounwind uwtable
define void @arkFreeVec(ptr noundef captures(none) %0, ptr noundef captures(none) %1) local_unnamed_addr #0 {
  %3 = load ptr, ptr %1, align 8, !tbaa !52
  %.not = icmp eq ptr %3, null
  br i1 %.not, label %15, label %4

4:                                                ; preds = %2
  tail call void @N_VDestroy(ptr noundef nonnull %3) #16
  store ptr null, ptr %1, align 8, !tbaa !52
  %5 = getelementptr inbounds nuw i8, ptr %0, i64 856
  %6 = load i64, ptr %5, align 8, !tbaa !31
  %7 = getelementptr inbounds nuw i8, ptr %0, i64 872
  %8 = load i64, ptr %7, align 8, !tbaa !53
  %9 = sub nsw i64 %8, %6
  store i64 %9, ptr %7, align 8, !tbaa !53
  %10 = getelementptr inbounds nuw i8, ptr %0, i64 864
  %11 = load i64, ptr %10, align 8, !tbaa !32
  %12 = getelementptr inbounds nuw i8, ptr %0, i64 880
  %13 = load i64, ptr %12, align 8, !tbaa !54
  %14 = sub nsw i64 %13, %11
  store i64 %14, ptr %12, align 8, !tbaa !54
  br label %15

15:                                               ; preds = %4, %2
  ret void
}